target datalayout = "e-m:e-p270:32:32-p271:32:32-p272:64:64-i64:64-i128:128-f80:128-n8:16:32:64-S128"
target triple = "x86_64-pc-linux-gnu"

%struct.SDL_AtomicInt = type { i32 }

@.str.3 = private unnamed_addr constant [1 x i8] zeroinitializer, align 1
@SDL_string_storage = internal global %struct.SDL_AtomicInt zeroinitializer, align 4

; Function Attrs: nounwind uwtable
define hidden ptr @SDL_GetPersistentString(ptr noundef %0) #0 {
  %2 = alloca ptr, align 8
  %3 = alloca ptr, align 8
  %4 = alloca ptr, align 8
  %5 = alloca i32, align 4
  %6 = alloca ptr, align 8
  %7 = alloca ptr, align 8
  store ptr %0, ptr %3, align 8
  %8 = load ptr, ptr %3, align 8
  %9 = icmp ne ptr %8, null
  br i1 %9, label %11, label %10

10:                                               ; preds = %1
  store ptr null, ptr %2, align 8
  br label %51

11:                                               ; preds = %1
  %12 = load ptr, ptr %3, align 8
  %13 = load i8, ptr %12, align 1
  %14 = icmp ne i8 %13, 0
  br i1 %14, label %16, label %15

15:                                               ; preds = %11
  store ptr @.str.3, ptr %2, align 8
  br label %51

16:                                               ; preds = %11
  call void @llvm.lifetime.start.p0(i64 8, ptr %4) #6
  %17 = call ptr @SDL_GetTLS_REAL(ptr noundef @SDL_string_storage)
  store ptr %17, ptr %4, align 8
  %18 = load ptr, ptr %4, align 8
  %19 = icmp ne ptr %18, null
  br i1 %19, label %28, label %20

20:                                               ; preds = %16
  %21 = call ptr @SDL_CreateHashTable(i32 noundef 0, i1 noundef zeroext false, ptr noundef @SDL_HashString, ptr noundef @SDL_KeyMatchString, ptr noundef @SDL_DestroyHashValue, ptr noundef null)
  store ptr %21, ptr %4, align 8
  %22 = load ptr, ptr %4, align 8
  %23 = icmp ne ptr %22, null
  br i1 %23, label %25, label %24

24:                                               ; preds = %20
  store ptr null, ptr %2, align 8
  store i32 1, ptr %5, align 4
  br label %50

25:                                               ; preds = %20
  %26 = load ptr, ptr %4, align 8
  %27 = call zeroext i1 @SDL_SetTLS_REAL(ptr noundef @SDL_string_storage, ptr noundef %26, ptr noundef @SDL_FreePersistentStrings)
  br label %28

28:                                               ; preds = %25, %16
  call void @llvm.lifetime.start.p0(i64 8, ptr %6) #6
  %29 = load ptr, ptr %4, align 8
  %30 = load ptr, ptr %3, align 8
  %31 = call zeroext i1 @SDL_FindInHashTable(ptr noundef %29, ptr noundef %30, ptr noundef %6)
  br i1 %31, label %47, label %32

32:                                               ; preds = %28
  call void @llvm.lifetime.start.p0(i64 8, ptr %7) #6
  %33 = load ptr, ptr %3, align 8
  %34 = call noalias ptr @SDL_strdup_REAL(ptr noundef %33)
  store ptr %34, ptr %7, align 8
  %35 = load ptr, ptr %7, align 8
  %36 = icmp ne ptr %35, null
  br i1 %36, label %38, label %37

37:                                               ; preds = %32
  store ptr null, ptr %2, align 8
  store i32 1, ptr %5, align 4
  br label %44

38:                                               ; preds = %32
  %39 = load ptr, ptr %4, align 8
  %40 = load ptr, ptr %7, align 8
  %41 = load ptr, ptr %7, align 8
  %42 = call zeroext i1 @SDL_InsertIntoHashTable(ptr noundef %39, ptr noundef %40, ptr noundef %41, i1 noundef zeroext false)
  %43 = load ptr, ptr %7, align 8
  store ptr %43, ptr %6, align 8
  store i32 0, ptr %5, align 4
  br label %44

44:                                               ; preds = %38, %37
  call void @llvm.lifetime.end.p0(i64 8, ptr %7) #6
  %45 = load i32, ptr %5, align 4
  switch i32 %45, label %49 [
    i32 0, label %46
  ]

46:                                               ; preds = %44
  br label %47

47:                                               ; preds = %46, %28
  %48 = load ptr, ptr %6, align 8
  store ptr %48, ptr %2, align 8
  store i32 1, ptr %5, align 4
  br label %49

49:                                               ; preds = %47, %44
  call void @llvm.lifetime.end.p0(i64 8, ptr %6) #6
  br label %50

50:                                               ; preds = %49, %24
  call void @llvm.lifetime.end.p0(i64 8, ptr %4) #6
  br label %51

51:                                               ; preds = %50, %15, %10
  %52 = load ptr, ptr %2, align 8
  ret ptr %52
}