; Function Attrs: nounwind uwtable
define hidden ptr @SDL_GetPersistentString(ptr noundef %0) local_unnamed_addr #4 {
  %2 = alloca ptr, align 8
  %.not = icmp eq ptr %0, null
  br i1 %.not, label %17, label %3

3:                                                ; preds = %1
  %4 = load i8, ptr %0, align 1
  %.not20 = icmp eq i8 %4, 0
  br i1 %.not20, label %17, label %5

5:                                                ; preds = %3
  %6 = tail call ptr @SDL_GetTLS_REAL(ptr noundef nonnull @SDL_string_storage) #10
  %.not21 = icmp eq ptr %6, null
  br i1 %.not21, label %7, label %11

7:                                                ; preds = %5
  %8 = tail call ptr @SDL_CreateHashTable(i32 noundef 0, i1 noundef zeroext false, ptr noundef nonnull @SDL_HashString, ptr noundef nonnull @SDL_KeyMatchString, ptr noundef nonnull @SDL_DestroyHashValue, ptr noundef null) #10
  %.not22 = icmp eq ptr %8, null
  br i1 %.not22, label %17, label %9

9:                                                ; preds = %7
  %10 = tail call zeroext i1 @SDL_SetTLS_REAL(ptr noundef nonnull @SDL_string_storage, ptr noundef nonnull %8, ptr noundef nonnull @SDL_FreePersistentStrings) #10
  br label %11

11:                                               ; preds = %9, %5
  %.015 = phi ptr [ %6, %5 ], [ %8, %9 ]
  call void @llvm.lifetime.start.p0(i64 8, ptr nonnull %2) #10
  %12 = call zeroext i1 @SDL_FindInHashTable(ptr noundef nonnull %.015, ptr noundef nonnull %0, ptr noundef nonnull %2) #10
  br i1 %12, label %._crit_edge, label %13

._crit_edge:                                      ; preds = %11
  %.pre = load ptr, ptr %2, align 8
  br label %.critedge

13:                                               ; preds = %11
  %14 = call noalias ptr @SDL_strdup_REAL(ptr noundef nonnull %0) #10
  %.not23.not = icmp eq ptr %14, null
  br i1 %.not23.not, label %.critedge, label %15

15:                                               ; preds = %13
  %16 = call zeroext i1 @SDL_InsertIntoHashTable(ptr noundef nonnull %.015, ptr noundef nonnull %14, ptr noundef nonnull %14, i1 noundef zeroext false) #10
  br label %.critedge

.critedge:                                        ; preds = %15, %._crit_edge, %13
  %.3 = phi ptr [ null, %13 ], [ %.pre, %._crit_edge ], [ %14, %15 ]
  call void @llvm.lifetime.end.p0(i64 8, ptr nonnull %2) #10
  br label %17

17:                                               ; preds = %.critedge, %7, %3, %1
  %.0 = phi ptr [ null, %1 ], [ @.str.3, %3 ], [ %.3, %.critedge ], [ null, %7 ]
  ret ptr %.0
}